; ModuleID = 'bench/postgres/original/isolation_main.ll'
source_filename = "bench/postgres/original/isolation_main.ll"
target datalayout = "e-m:e-p270:32:32-p271:32:32-p272:64:64-i64:64-i128:128-f80:128-n8:16:32:64-S128"
target triple = "x86_64-pc-linux-gnu"

%struct.StringInfoData = type { ptr, i32, i32, i32 }

@saved_argv0 = internal global [1024 x i8] zeroinitializer, align 16
@stderr = external local_unnamed_addr global ptr, align 8
@.str = private unnamed_addr constant [61 x i8] c"path for isolationtester executable is longer than %d bytes\0A\00", align 1
@dblist = external global ptr, align 8
@.str.1 = private unnamed_addr constant [21 x i8] c"isolation_regression\00", align 1
@looked_up_isolation_exec = internal unnamed_addr global i1 false, align 1
@.str.2 = private unnamed_addr constant [16 x i8] c"isolationtester\00", align 1
@.str.3 = private unnamed_addr constant [38 x i8] c"isolationtester (PostgreSQL) 18devel\0A\00", align 1
@isolation_exec = internal global [1024 x i8] zeroinitializer, align 16
@.str.4 = private unnamed_addr constant [46 x i8] c"could not find proper isolationtester binary\0A\00", align 1
@.str.5 = private unnamed_addr constant [17 x i8] c"%s/specs/%s.spec\00", align 1
@outputdir = external local_unnamed_addr global ptr, align 8
@inputdir = external local_unnamed_addr global ptr, align 8
@.str.6 = private unnamed_addr constant [18 x i8] c"%s/results/%s.out\00", align 1
@.str.7 = private unnamed_addr constant [19 x i8] c"%s/expected/%s.out\00", align 1
@launcher = external local_unnamed_addr global ptr, align 8
@.str.8 = private unnamed_addr constant [4 x i8] c"%s \00", align 1
@.str.9 = private unnamed_addr constant [36 x i8] c"\22%s\22 \22dbname=%s\22 < \22%s\22 > \22%s\22 2>&1\00", align 1
@.str.10 = private unnamed_addr constant [13 x i8] c"isolation/%s\00", align 1
@.str.11 = private unnamed_addr constant [10 x i8] c"PGAPPNAME\00", align 1
@.str.12 = private unnamed_addr constant [37 x i8] c"could not start process for test %s\0A\00", align 1

; Function Attrs: nounwind uwtable
define dso_local i32 @main(i32 noundef %0, ptr noundef %1) local_unnamed_addr #0 {
  %3 = tail call i32 @regression_main(i32 noundef %0, ptr noundef %1, ptr noundef nonnull @isolation_init, ptr noundef nonnull @isolation_start_test, ptr noundef null) #8
  ret i32 %3
}

declare i32 @regression_main(i32 noundef, ptr noundef, ptr noundef, ptr noundef, ptr noundef) local_unnamed_addr #1

; Function Attrs: nounwind uwtable
define internal void @isolation_init(i32 %0, ptr noundef readonly captures(none) %1) #0 {
  %3 = load ptr, ptr %1, align 8
  %4 = tail call i64 @strlcpy(ptr noundef nonnull dereferenceable(1) @saved_argv0, ptr noundef nonnull dereferenceable(1) %3, i64 noundef 1024) #8
  %5 = icmp ugt i64 %4, 1023
  br i1 %5, label %6, label %9

6:                                                ; preds = %2
  %7 = load ptr, ptr @stderr, align 8
  %8 = tail call i32 (ptr, ptr, ...) @pg_fprintf(ptr noundef %7, ptr noundef nonnull @.str, i32 noundef 1023) #8
  tail call void @exit(i32 noundef 2) #9
  unreachable

9:                                                ; preds = %2
  tail call void @add_stringlist_item(ptr noundef nonnull @dblist, ptr noundef nonnull @.str.1) #8
  ret void
}

; Function Attrs: nounwind uwtable
define internal range(i32 0, -1) i32 @isolation_start_test(ptr noundef %0, ptr noundef %1, ptr noundef %2, ptr readnone captures(none) %3) #0 {
  %5 = alloca [1024 x i8], align 16
  %6 = alloca [1024 x i8], align 16
  %7 = alloca [1024 x i8], align 16
  %8 = alloca %struct.StringInfoData, align 8
  call void @llvm.lifetime.start.p0(i64 1024, ptr nonnull %5) #8
  call void @llvm.lifetime.start.p0(i64 1024, ptr nonnull %6) #8
  call void @llvm.lifetime.start.p0(i64 1024, ptr nonnull %7) #8
  call void @llvm.lifetime.start.p0(i64 24, ptr nonnull %8) #8
  %.b13 = load i1, ptr @looked_up_isolation_exec, align 1
  br i1 %.b13, label %15, label %9

9:                                                ; preds = %4
  %10 = tail call i32 @find_other_exec(ptr noundef nonnull @saved_argv0, ptr noundef nonnull @.str.2, ptr noundef nonnull @.str.3, ptr noundef nonnull @isolation_exec) #8
  %.not = icmp eq i32 %10, 0
  br i1 %.not, label %14, label %11

11:                                               ; preds = %9
  %12 = load ptr, ptr @stderr, align 8
  %13 = tail call i32 (ptr, ptr, ...) @pg_fprintf(ptr noundef %12, ptr noundef nonnull @.str.4) #8
  tail call void @exit(i32 noundef 2) #9
  unreachable

14:                                               ; preds = %9
  store i1 true, ptr @looked_up_isolation_exec, align 1
  br label %15

15:                                               ; preds = %14, %4
  %16 = load ptr, ptr @outputdir, align 8
  %17 = call i32 (ptr, i64, ptr, ...) @pg_snprintf(ptr noundef nonnull %5, i64 noundef 1024, ptr noundef nonnull @.str.5, ptr noundef %16, ptr noundef %0) #8
  %18 = call zeroext i1 @file_exists(ptr noundef nonnull %5) #8
  br i1 %18, label %22, label %19

19:                                               ; preds = %15
  %20 = load ptr, ptr @inputdir, align 8
  %21 = call i32 (ptr, i64, ptr, ...) @pg_snprintf(ptr noundef nonnull %5, i64 noundef 1024, ptr noundef nonnull @.str.5, ptr noundef %20, ptr noundef %0) #8
  br label %22

22:                                               ; preds = %19, %15
  %23 = load ptr, ptr @outputdir, align 8
  %24 = call i32 (ptr, i64, ptr, ...) @pg_snprintf(ptr noundef nonnull %6, i64 noundef 1024, ptr noundef nonnull @.str.6, ptr noundef %23, ptr noundef %0) #8
  %25 = load ptr, ptr @outputdir, align 8
  %26 = call i32 (ptr, i64, ptr, ...) @pg_snprintf(ptr noundef nonnull %7, i64 noundef 1024, ptr noundef nonnull @.str.7, ptr noundef %25, ptr noundef %0) #8
  %27 = call zeroext i1 @file_exists(ptr noundef nonnull %7) #8
  br i1 %27, label %31, label %28

28:                                               ; preds = %22
  %29 = load ptr, ptr @inputdir, align 8
  %30 = call i32 (ptr, i64, ptr, ...) @pg_snprintf(ptr noundef nonnull %7, i64 noundef 1024, ptr noundef nonnull @.str.7, ptr noundef %29, ptr noundef %0) #8
  br label %31

31:                                               ; preds = %28, %22
  call void @add_stringlist_item(ptr noundef %1, ptr noundef nonnull %6) #8
  call void @add_stringlist_item(ptr noundef %2, ptr noundef nonnull %7) #8
  call void @initStringInfo(ptr noundef nonnull %8) #8
  %32 = load ptr, ptr @launcher, align 8
  %.not14 = icmp eq ptr %32, null
  br i1 %.not14, label %34, label %33

33:                                               ; preds = %31
  call void (ptr, ptr, ...) @appendStringInfo(ptr noundef nonnull %8, ptr noundef nonnull @.str.8, ptr noundef nonnull %32) #8
  br label %34

34:                                               ; preds = %33, %31
  %35 = load ptr, ptr @dblist, align 8
  %36 = load ptr, ptr %35, align 8
  call void (ptr, ptr, ...) @appendStringInfo(ptr noundef nonnull %8, ptr noundef nonnull @.str.9, ptr noundef nonnull @isolation_exec, ptr noundef %36, ptr noundef nonnull %5, ptr noundef nonnull %6) #8
  %37 = call ptr (ptr, ...) @psprintf(ptr noundef nonnull @.str.10, ptr noundef %0) #8
  %38 = call i32 @setenv(ptr noundef nonnull @.str.11, ptr noundef %37, i32 noundef 1) #8
  call void @free(ptr noundef %37) #8
  %39 = load ptr, ptr %8, align 8
  %40 = call i32 @spawn_process(ptr noundef %39) #8
  %41 = icmp eq i32 %40, -1
  br i1 %41, label %42, label %45

42:                                               ; preds = %34
  %43 = load ptr, ptr @stderr, align 8
  %44 = call i32 (ptr, ptr, ...) @pg_fprintf(ptr noundef %43, ptr noundef nonnull @.str.12, ptr noundef %0) #8
  call void @exit(i32 noundef 2) #9
  unreachable

45:                                               ; preds = %34
  %46 = call i32 @unsetenv(ptr noundef nonnull @.str.11) #8
  %47 = load ptr, ptr %8, align 8
  call void @pfree(ptr noundef %47) #8
  call void @llvm.lifetime.end.p0(i64 24, ptr nonnull %8) #8
  call void @llvm.lifetime.end.p0(i64 1024, ptr nonnull %7) #8
  call void @llvm.lifetime.end.p0(i64 1024, ptr nonnull %6) #8
  call void @llvm.lifetime.end.p0(i64 1024, ptr nonnull %5) #8
  ret i32 %40
}

; Function Attrs: mustprogress nocallback nofree nosync nounwind willreturn memory(argmem: readwrite)
declare void @llvm.lifetime.start.p0(i64 immarg, ptr captures(none)) #2

; Function Attrs: nofree
declare i64 @strlcpy(ptr noundef, ptr noundef, i64 noundef) local_unnamed_addr #3

declare i32 @pg_fprintf(ptr noundef, ptr noundef, ...) local_unnamed_addr #1

; Function Attrs: nofree noreturn nounwind
declare void @exit(i32 noundef) local_unnamed_addr #4

declare void @add_stringlist_item(ptr noundef, ptr noundef) local_unnamed_addr #1

; Function Attrs: mustprogress nocallback nofree nosync nounwind willreturn memory(argmem: readwrite)
declare void @llvm.lifetime.end.p0(i64 immarg, ptr captures(none)) #2

declare i32 @find_other_exec(ptr noundef, ptr noundef, ptr noundef, ptr noundef) local_unnamed_addr #1

declare i32 @pg_snprintf(ptr noundef, i64 noundef, ptr noundef, ...) local_unnamed_addr #1

declare zeroext i1 @file_exists(ptr noundef) local_unnamed_addr #1

declare void @initStringInfo(ptr noundef) local_unnamed_addr #1

declare void @appendStringInfo(ptr noundef, ptr noundef, ...) local_unnamed_addr #1

declare ptr @psprintf(ptr noundef, ...) local_unnamed_addr #1

; Function Attrs: nounwind
declare i32 @setenv(ptr noundef, ptr noundef, i32 noundef) local_unnamed_addr #5

; Function Attrs: mustprogress nounwind willreturn allockind("free") memory(argmem: readwrite, inaccessiblemem: readwrite)
declare void @free(ptr allocptr noundef captures(none)) local_unnamed_addr #6

declare i32 @spawn_process(ptr noundef) local_unnamed_addr #1

; Function Attrs: nofree nounwind
declare noundef i32 @unsetenv(ptr noundef readonly captures(none)) local_unnamed_addr #7

declare void @pfree(ptr noundef) local_unnamed_addr #1


!llvm.module.flags = !{!0, !1, !2, !3}

!0 = !{i32 1, !"wchar_size", i32 4}
!1 = !{i32 8, !"PIC Level", i32 2}
!2 = !{i32 7, !"PIE Level", i32 2}
!3 = !{i32 7, !"uwtable", i32 2}
